target datalayout = "e-m:e-p270:32:32-p271:32:32-p272:64:64-i64:64-i128:128-f80:128-n8:16:32:64-S128"
target triple = "x86_64-pc-linux-gnu"

%struct.EllipseEquation = type { [7 x double] }

; Function Attrs: mustprogress nounwind uwtable
define linkonce_odr hidden noundef double @_ZN15EllipseEquation1FEv(ptr noundef nonnull align 8 dereferenceable(56) %0) #8 comdat align 2 {
  %2 = alloca ptr, align 8
  store ptr %0, ptr %2, align 8, !tbaa !421
  %3 = load ptr, ptr %2, align 8
  %4 = getelementptr inbounds nuw %struct.EllipseEquation, ptr %3, i32 0, i32 0
  %5 = getelementptr inbounds [7 x double], ptr %4, i64 0, i64 6
  %6 = load double, ptr %5, align 8, !tbaa !10
  ret double %6
}

; Function Attrs: mustprogress nounwind uwtable
define linkonce_odr hidden noundef double @_ZN15EllipseEquation1EEv(ptr noundef nonnull align 8 dereferenceable(56) %0) #8 comdat align 2 {
  %2 = alloca ptr, align 8
  store ptr %0, ptr %2, align 8, !tbaa !421
  %3 = load ptr, ptr %2, align 8
  %4 = getelementptr inbounds nuw %struct.EllipseEquation, ptr %3, i32 0, i32 0
  %5 = getelementptr inbounds [7 x double], ptr %4, i64 0, i64 5
  %6 = load double, ptr %5, align 8, !tbaa !10
  ret double %6
}

; Function Attrs: mustprogress nounwind uwtable
define linkonce_odr hidden noundef double @_ZN15EllipseEquation1DEv(ptr noundef nonnull align 8 dereferenceable(56) %0) #8 comdat align 2 {
  %2 = alloca ptr, align 8
  store ptr %0, ptr %2, align 8, !tbaa !421
  %3 = load ptr, ptr %2, align 8
  %4 = getelementptr inbounds nuw %struct.EllipseEquation, ptr %3, i32 0, i32 0
  %5 = getelementptr inbounds [7 x double], ptr %4, i64 0, i64 4
  %6 = load double, ptr %5, align 8, !tbaa !10
  ret double %6
}

; Function Attrs: mustprogress nounwind uwtable
define linkonce_odr hidden noundef double @_ZN15EllipseEquation1CEv(ptr noundef nonnull align 8 dereferenceable(56) %0) #8 comdat align 2 {
  %2 = alloca ptr, align 8
  store ptr %0, ptr %2, align 8, !tbaa !421
  %3 = load ptr, ptr %2, align 8
  %4 = getelementptr inbounds nuw %struct.EllipseEquation, ptr %3, i32 0, i32 0
  %5 = getelementptr inbounds [7 x double], ptr %4, i64 0, i64 3
  %6 = load double, ptr %5, align 8, !tbaa !10
  ret double %6
}

; Function Attrs: mustprogress nounwind uwtable
define linkonce_odr hidden noundef double @_ZN15EllipseEquation1BEv(ptr noundef nonnull align 8 dereferenceable(56) %0) #8 comdat align 2 {
  %2 = alloca ptr, align 8
  store ptr %0, ptr %2, align 8, !tbaa !421
  %3 = load ptr, ptr %2, align 8
  %4 = getelementptr inbounds nuw %struct.EllipseEquation, ptr %3, i32 0, i32 0
  %5 = getelementptr inbounds [7 x double], ptr %4, i64 0, i64 2
  %6 = load double, ptr %5, align 8, !tbaa !10
  ret double %6
}

; Function Attrs: mustprogress nounwind uwtable
define linkonce_odr hidden noundef double @_ZN15EllipseEquation1AEv(ptr noundef nonnull align 8 dereferenceable(56) %0) #8 comdat align 2 {
  %2 = alloca ptr, align 8
  store ptr %0, ptr %2, align 8, !tbaa !421
  %3 = load ptr, ptr %2, align 8
  %4 = getelementptr inbounds nuw %struct.EllipseEquation, ptr %3, i32 0, i32 0
  %5 = getelementptr inbounds [7 x double], ptr %4, i64 0, i64 1
  %6 = load double, ptr %5, align 8, !tbaa !10
  ret double %6
}

; Function Attrs: mustprogress uwtable
define hidden noundef double @_ZN2cv8ximgproc15EdgeDrawingImpl23computeEllipsePerimeterEP15EllipseEquation(ptr noundef %0) #4 align 2 {
  %2 = alloca ptr, align 8
  %3 = alloca double, align 8
  %4 = alloca double, align 8
  %5 = alloca double, align 8
  %6 = alloca double, align 8
  %7 = alloca double, align 8
  %8 = alloca double, align 8
  %9 = alloca double, align 8
  %10 = alloca double, align 8
  %11 = alloca double, align 8
  %12 = alloca double, align 8
  %13 = alloca double, align 8
  %14 = alloca double, align 8
  %15 = alloca double, align 8
  %16 = alloca double, align 8
  %17 = alloca double, align 8
  %18 = alloca double, align 8
  %19 = alloca double, align 8
  %20 = alloca double, align 8
  %21 = alloca double, align 8
  %22 = alloca double, align 8
  %23 = alloca double, align 8
  %24 = alloca i8, align 1
  %25 = alloca double, align 8
  %26 = alloca double, align 8
  %27 = alloca double, align 8
  store ptr %0, ptr %2, align 8, !tbaa !421
  call void @llvm.lifetime.start.p0(i64 8, ptr %3) #3
  store double 1.000000e+00, ptr %3, align 8, !tbaa !10
  call void @llvm.lifetime.start.p0(i64 8, ptr %4) #3
  %28 = load ptr, ptr %2, align 8, !tbaa !421
  %29 = call noundef double @_ZN15EllipseEquation1AEv(ptr noundef nonnull align 8 dereferenceable(56) %28)
  %30 = load double, ptr %3, align 8, !tbaa !10
  %31 = fmul double %29, %30
  store double %31, ptr %4, align 8, !tbaa !10
  call void @llvm.lifetime.start.p0(i64 8, ptr %5) #3
  %32 = load ptr, ptr %2, align 8, !tbaa !421
  %33 = call noundef double @_ZN15EllipseEquation1BEv(ptr noundef nonnull align 8 dereferenceable(56) %32)
  %34 = load double, ptr %3, align 8, !tbaa !10
  %35 = fmul double %33, %34
  store double %35, ptr %5, align 8, !tbaa !10
  call void @llvm.lifetime.start.p0(i64 8, ptr %6) #3
  %36 = load ptr, ptr %2, align 8, !tbaa !421
  %37 = call noundef double @_ZN15EllipseEquation1CEv(ptr noundef nonnull align 8 dereferenceable(56) %36)
  %38 = load double, ptr %3, align 8, !tbaa !10
  %39 = fmul double %37, %38
  store double %39, ptr %6, align 8, !tbaa !10
  call void @llvm.lifetime.start.p0(i64 8, ptr %7) #3
  %40 = load ptr, ptr %2, align 8, !tbaa !421
  %41 = call noundef double @_ZN15EllipseEquation1DEv(ptr noundef nonnull align 8 dereferenceable(56) %40)
  %42 = load double, ptr %3, align 8, !tbaa !10
  %43 = fmul double %41, %42
  store double %43, ptr %7, align 8, !tbaa !10
  call void @llvm.lifetime.start.p0(i64 8, ptr %8) #3
  %44 = load ptr, ptr %2, align 8, !tbaa !421
  %45 = call noundef double @_ZN15EllipseEquation1EEv(ptr noundef nonnull align 8 dereferenceable(56) %44)
  %46 = load double, ptr %3, align 8, !tbaa !10
  %47 = fmul double %45, %46
  store double %47, ptr %8, align 8, !tbaa !10
  call void @llvm.lifetime.start.p0(i64 8, ptr %9) #3
  %48 = load ptr, ptr %2, align 8, !tbaa !421
  %49 = call noundef double @_ZN15EllipseEquation1FEv(ptr noundef nonnull align 8 dereferenceable(56) %48)
  %50 = load double, ptr %3, align 8, !tbaa !10
  %51 = fmul double %49, %50
  store double %51, ptr %9, align 8, !tbaa !10
  call void @llvm.lifetime.start.p0(i64 8, ptr %10) #3
  store double 0.000000e+00, ptr %10, align 8, !tbaa !10
  call void @llvm.lifetime.start.p0(i64 8, ptr %11) #3
  store double 0.000000e+00, ptr %11, align 8, !tbaa !10
  call void @llvm.lifetime.start.p0(i64 8, ptr %12) #3
  store double 0.000000e+00, ptr %12, align 8, !tbaa !10
  call void @llvm.lifetime.start.p0(i64 8, ptr %13) #3
  store double 0.000000e+00, ptr %13, align 8, !tbaa !10
  call void @llvm.lifetime.start.p0(i64 8, ptr %14) #3
  store double 0.000000e+00, ptr %14, align 8, !tbaa !10
  call void @llvm.lifetime.start.p0(i64 8, ptr %15) #3
  store double 0.000000e+00, ptr %15, align 8, !tbaa !10
  call void @llvm.lifetime.start.p0(i64 8, ptr %16) #3
  call void @llvm.lifetime.start.p0(i64 8, ptr %17) #3
  call void @llvm.lifetime.start.p0(i64 8, ptr %18) #3
  call void @llvm.lifetime.start.p0(i64 8, ptr %19) #3
  call void @llvm.lifetime.start.p0(i64 8, ptr %20) #3
  call void @llvm.lifetime.start.p0(i64 8, ptr %21) #3
  call void @llvm.lifetime.start.p0(i64 8, ptr %22) #3
  call void @llvm.lifetime.start.p0(i64 8, ptr %23) #3
  call void @llvm.lifetime.start.p0(i64 1, ptr %24) #3
  store i8 0, ptr %24, align 1, !tbaa !111
  %52 = load double, ptr %4, align 8, !tbaa !10
  %53 = load double, ptr %5, align 8, !tbaa !10
  %54 = fdiv double %53, %52
  store double %54, ptr %5, align 8, !tbaa !10
  %55 = load double, ptr %4, align 8, !tbaa !10
  %56 = load double, ptr %6, align 8, !tbaa !10
  %57 = fdiv double %56, %55
  store double %57, ptr %6, align 8, !tbaa !10
  %58 = load double, ptr %4, align 8, !tbaa !10
  %59 = load double, ptr %7, align 8, !tbaa !10
  %60 = fdiv double %59, %58
  store double %60, ptr %7, align 8, !tbaa !10
  %61 = load double, ptr %4, align 8, !tbaa !10
  %62 = load double, ptr %8, align 8, !tbaa !10
  %63 = fdiv double %62, %61
  store double %63, ptr %8, align 8, !tbaa !10
  %64 = load double, ptr %4, align 8, !tbaa !10
  %65 = load double, ptr %9, align 8, !tbaa !10
  %66 = fdiv double %65, %64
  store double %66, ptr %9, align 8, !tbaa !10
  %67 = load double, ptr %4, align 8, !tbaa !10
  %68 = load double, ptr %4, align 8, !tbaa !10
  %69 = fdiv double %68, %67
  store double %69, ptr %4, align 8, !tbaa !10
  %70 = load double, ptr %5, align 8, !tbaa !10
  %71 = fcmp oeq double %70, 0.000000e+00
  br i1 %71, label %72, label %78

72:                                               ; preds = %1
  %73 = load double, ptr %4, align 8, !tbaa !10
  store double %73, ptr %10, align 8, !tbaa !10
  %74 = load double, ptr %6, align 8, !tbaa !10
  store double %74, ptr %11, align 8, !tbaa !10
  %75 = load double, ptr %7, align 8, !tbaa !10
  store double %75, ptr %12, align 8, !tbaa !10
  %76 = load double, ptr %8, align 8, !tbaa !10
  store double %76, ptr %13, align 8, !tbaa !10
  %77 = load double, ptr %9, align 8, !tbaa !10
  store double %77, ptr %14, align 8, !tbaa !10
  br label %145

78:                                               ; preds = %1
  %79 = load double, ptr %5, align 8, !tbaa !10
  %80 = fcmp une double %79, 0.000000e+00
  br i1 %80, label %81, label %144

81:                                               ; preds = %78
  store i8 1, ptr %24, align 1, !tbaa !111
  %82 = load double, ptr %5, align 8, !tbaa !10
  %83 = load double, ptr %4, align 8, !tbaa !10
  %84 = load double, ptr %6, align 8, !tbaa !10
  %85 = fsub double %83, %84
  %86 = fdiv double %82, %85
  %87 = call double @atan(double noundef %86) #3, !tbaa !8
  %88 = fdiv double %87, 2.000000e+00
  store double %88, ptr %15, align 8, !tbaa !10
  %89 = load double, ptr %4, align 8, !tbaa !10
  %90 = load double, ptr %15, align 8, !tbaa !10
  %91 = fmul double 2.000000e+00, %90
  %92 = call double @cos(double noundef %91) #3, !tbaa !8
  %93 = fadd double 1.000000e+00, %92
  %94 = load double, ptr %5, align 8, !tbaa !10
  %95 = load double, ptr %15, align 8, !tbaa !10
  %96 = fmul double 2.000000e+00, %95
  %97 = call double @sin(double noundef %96) #3, !tbaa !8
  %98 = call double @llvm.fmuladd.f64(double %94, double %97, double %93)
  %99 = load double, ptr %6, align 8, !tbaa !10
  %100 = load double, ptr %15, align 8, !tbaa !10
  %101 = fmul double 2.000000e+00, %100
  %102 = call double @cos(double noundef %101) #3, !tbaa !8
  %103 = fsub double 1.000000e+00, %102
  %104 = call double @llvm.fmuladd.f64(double %99, double %103, double %98)
  %105 = fmul double %89, %104
  %106 = fmul double 5.000000e-01, %105
  store double %106, ptr %10, align 8, !tbaa !10
  %107 = load double, ptr %4, align 8, !tbaa !10
  %108 = load double, ptr %15, align 8, !tbaa !10
  %109 = fmul double 2.000000e+00, %108
  %110 = call double @cos(double noundef %109) #3, !tbaa !8
  %111 = fsub double 1.000000e+00, %110
  %112 = load double, ptr %5, align 8, !tbaa !10
  %113 = load double, ptr %15, align 8, !tbaa !10
  %114 = fmul double 2.000000e+00, %113
  %115 = call double @sin(double noundef %114) #3, !tbaa !8
  %116 = fneg double %112
  %117 = call double @llvm.fmuladd.f64(double %116, double %115, double %111)
  %118 = load double, ptr %6, align 8, !tbaa !10
  %119 = load double, ptr %15, align 8, !tbaa !10
  %120 = fmul double 2.000000e+00, %119
  %121 = call double @cos(double noundef %120) #3, !tbaa !8
  %122 = fadd double 1.000000e+00, %121
  %123 = call double @llvm.fmuladd.f64(double %118, double %122, double %117)
  %124 = fmul double %107, %123
  %125 = fmul double 5.000000e-01, %124
  store double %125, ptr %11, align 8, !tbaa !10
  %126 = load double, ptr %7, align 8, !tbaa !10
  %127 = load double, ptr %15, align 8, !tbaa !10
  %128 = call double @cos(double noundef %127) #3, !tbaa !8
  %129 = load double, ptr %8, align 8, !tbaa !10
  %130 = load double, ptr %15, align 8, !tbaa !10
  %131 = call double @sin(double noundef %130) #3, !tbaa !8
  %132 = fmul double %129, %131
  %133 = call double @llvm.fmuladd.f64(double %126, double %128, double %132)
  store double %133, ptr %12, align 8, !tbaa !10
  %134 = load double, ptr %7, align 8, !tbaa !10
  %135 = fneg double %134
  %136 = load double, ptr %15, align 8, !tbaa !10
  %137 = call double @sin(double noundef %136) #3, !tbaa !8
  %138 = load double, ptr %8, align 8, !tbaa !10
  %139 = load double, ptr %15, align 8, !tbaa !10
  %140 = call double @cos(double noundef %139) #3, !tbaa !8
  %141 = fmul double %138, %140
  %142 = call double @llvm.fmuladd.f64(double %135, double %137, double %141)
  store double %142, ptr %13, align 8, !tbaa !10
  %143 = load double, ptr %9, align 8, !tbaa !10
  store double %143, ptr %14, align 8, !tbaa !10
  br label %144

144:                                              ; preds = %81, %78
  br label %145

145:                                              ; preds = %144, %72
  %146 = load double, ptr %12, align 8, !tbaa !10
  %147 = load double, ptr %10, align 8, !tbaa !10
  %148 = fdiv double %146, %147
  store double %148, ptr %16, align 8, !tbaa !10
  %149 = load double, ptr %13, align 8, !tbaa !10
  %150 = load double, ptr %11, align 8, !tbaa !10
  %151 = fdiv double %149, %150
  store double %151, ptr %17, align 8, !tbaa !10
  %152 = load double, ptr %16, align 8, !tbaa !10
  %153 = fdiv double %152, 2.000000e+00
  %154 = fneg double %153
  store double %154, ptr %19, align 8, !tbaa !10
  %155 = load double, ptr %17, align 8, !tbaa !10
  %156 = fdiv double %155, 2.000000e+00
  %157 = fneg double %156
  store double %157, ptr %20, align 8, !tbaa !10
  %158 = load double, ptr %10, align 8, !tbaa !10
  %159 = load double, ptr %19, align 8, !tbaa !10
  %160 = call double @pow(double noundef %159, double noundef 2.000000e+00) #3, !tbaa !8
  %161 = load double, ptr %11, align 8, !tbaa !10
  %162 = load double, ptr %20, align 8, !tbaa !10
  %163 = call double @pow(double noundef %162, double noundef 2.000000e+00) #3, !tbaa !8
  %164 = fmul double %161, %163
  %165 = call double @llvm.fmuladd.f64(double %158, double %160, double %164)
  %166 = load double, ptr %14, align 8, !tbaa !10
  %167 = fsub double %165, %166
  store double %167, ptr %18, align 8, !tbaa !10
  %168 = load double, ptr %18, align 8, !tbaa !10
  %169 = load double, ptr %10, align 8, !tbaa !10
  %170 = fdiv double %168, %169
  %171 = call double @sqrt(double noundef %170) #3, !tbaa !8
  store double %171, ptr %21, align 8, !tbaa !10
  %172 = load double, ptr %18, align 8, !tbaa !10
  %173 = load double, ptr %11, align 8, !tbaa !10
  %174 = fdiv double %172, %173
  %175 = call double @sqrt(double noundef %174) #3, !tbaa !8
  store double %175, ptr %22, align 8, !tbaa !10
  %176 = load i8, ptr %24, align 1, !tbaa !111, !range !70, !noundef !71
  %177 = trunc i8 %176 to i1
  br i1 %177, label %178, label %198

178:                                              ; preds = %145
  call void @llvm.lifetime.start.p0(i64 8, ptr %25) #3
  %179 = load double, ptr %19, align 8, !tbaa !10
  store double %179, ptr %25, align 8, !tbaa !10
  call void @llvm.lifetime.start.p0(i64 8, ptr %26) #3
  %180 = load double, ptr %20, align 8, !tbaa !10
  store double %180, ptr %26, align 8, !tbaa !10
  %181 = load double, ptr %25, align 8, !tbaa !10
  %182 = load double, ptr %15, align 8, !tbaa !10
  %183 = call double @cos(double noundef %182) #3, !tbaa !8
  %184 = load double, ptr %26, align 8, !tbaa !10
  %185 = load double, ptr %15, align 8, !tbaa !10
  %186 = call double @sin(double noundef %185) #3, !tbaa !8
  %187 = fmul double %184, %186
  %188 = fneg double %187
  %189 = call double @llvm.fmuladd.f64(double %181, double %183, double %188)
  store double %189, ptr %19, align 8, !tbaa !10
  %190 = load double, ptr %25, align 8, !tbaa !10
  %191 = load double, ptr %15, align 8, !tbaa !10
  %192 = call double @sin(double noundef %191) #3, !tbaa !8
  %193 = load double, ptr %26, align 8, !tbaa !10
  %194 = load double, ptr %15, align 8, !tbaa !10
  %195 = call double @cos(double noundef %194) #3, !tbaa !8
  %196 = fmul double %193, %195
  %197 = call double @llvm.fmuladd.f64(double %190, double %192, double %196)
  store double %197, ptr %20, align 8, !tbaa !10
  call void @llvm.lifetime.end.p0(i64 8, ptr %26) #3
  call void @llvm.lifetime.end.p0(i64 8, ptr %25) #3
  br label %198

198:                                              ; preds = %178, %145
  %199 = load double, ptr %21, align 8, !tbaa !10
  %200 = load double, ptr %22, align 8, !tbaa !10
  %201 = fsub double %199, %200
  %202 = call double @pow(double noundef %201, double noundef 2.000000e+00) #3, !tbaa !8
  %203 = load double, ptr %21, align 8, !tbaa !10
  %204 = load double, ptr %22, align 8, !tbaa !10
  %205 = fadd double %203, %204
  %206 = call double @pow(double noundef %205, double noundef 2.000000e+00) #3, !tbaa !8
  %207 = fdiv double %202, %206
  store double %207, ptr %23, align 8, !tbaa !10
  call void @llvm.lifetime.start.p0(i64 8, ptr %27) #3
  %208 = load double, ptr %21, align 8, !tbaa !10
  %209 = load double, ptr %22, align 8, !tbaa !10
  %210 = fadd double %208, %209
  %211 = fmul double 0x400921FB54442D18, %210
  %212 = load double, ptr %23, align 8, !tbaa !10
  %213 = fmul double 3.000000e+00, %212
  %214 = load double, ptr %23, align 8, !tbaa !10
  %215 = call double @llvm.fmuladd.f64(double -3.000000e+00, double %214, double 4.000000e+00)
  %216 = call double @sqrt(double noundef %215) #3, !tbaa !8
  %217 = fadd double 1.000000e+01, %216
  %218 = fdiv double %213, %217
  %219 = fadd double 1.000000e+00, %218
  %220 = fmul double %211, %219
  store double %220, ptr %27, align 8, !tbaa !10
  %221 = load double, ptr %27, align 8, !tbaa !10
  call void @llvm.lifetime.end.p0(i64 8, ptr %27) #3
  call void @llvm.lifetime.end.p0(i64 1, ptr %24) #3
  call void @llvm.lifetime.end.p0(i64 8, ptr %23) #3
  call void @llvm.lifetime.end.p0(i64 8, ptr %22) #3
  call void @llvm.lifetime.end.p0(i64 8, ptr %21) #3
  call void @llvm.lifetime.end.p0(i64 8, ptr %20) #3
  call void @llvm.lifetime.end.p0(i64 8, ptr %19) #3
  call void @llvm.lifetime.end.p0(i64 8, ptr %18) #3
  call void @llvm.lifetime.end.p0(i64 8, ptr %17) #3
  call void @llvm.lifetime.end.p0(i64 8, ptr %16) #3
  call void @llvm.lifetime.end.p0(i64 8, ptr %15) #3
  call void @llvm.lifetime.end.p0(i64 8, ptr %14) #3
  call void @llvm.lifetime.end.p0(i64 8, ptr %13) #3
  call void @llvm.lifetime.end.p0(i64 8, ptr %12) #3
  call void @llvm.lifetime.end.p0(i64 8, ptr %11) #3
  call void @llvm.lifetime.end.p0(i64 8, ptr %10) #3
  call void @llvm.lifetime.end.p0(i64 8, ptr %9) #3
  call void @llvm.lifetime.end.p0(i64 8, ptr %8) #3
  call void @llvm.lifetime.end.p0(i64 8, ptr %7) #3
  call void @llvm.lifetime.end.p0(i64 8, ptr %6) #3
  call void @llvm.lifetime.end.p0(i64 8, ptr %5) #3
  call void @llvm.lifetime.end.p0(i64 8, ptr %4) #3
  call void @llvm.lifetime.end.p0(i64 8, ptr %3) #3
  ret double %221
}