; Function Attrs: mustprogress nofree nounwind willreturn memory(write, argmem: readwrite) uwtable
define hidden noundef double @_ZN2cv8ximgproc15EdgeDrawingImpl23computeEllipsePerimeterEP15EllipseEquation(ptr noundef readonly captures(none) %0) local_unnamed_addr #23 align 2 {
  %2 = getelementptr inbounds nuw i8, ptr %0, i64 8
  %3 = load double, ptr %2, align 8, !tbaa !37
  %4 = getelementptr inbounds nuw i8, ptr %0, i64 16
  %5 = load double, ptr %4, align 8, !tbaa !37
  %6 = getelementptr inbounds nuw i8, ptr %0, i64 24
  %7 = load double, ptr %6, align 8, !tbaa !37
  %8 = getelementptr inbounds nuw i8, ptr %0, i64 32
  %9 = load double, ptr %8, align 8, !tbaa !37
  %10 = getelementptr inbounds nuw i8, ptr %0, i64 40
  %11 = load double, ptr %10, align 8, !tbaa !37
  %12 = getelementptr inbounds nuw i8, ptr %0, i64 48
  %13 = load double, ptr %12, align 8, !tbaa !37
  %14 = fdiv double %5, %3
  %15 = fdiv double %7, %3
  %16 = fdiv double %9, %3
  %17 = fdiv double %11, %3
  %18 = fdiv double %13, %3
  %19 = fdiv double %3, %3
  %20 = fcmp une double %14, 0.000000e+00
  br i1 %20, label %21, label %55

21:                                               ; preds = %1
  %22 = fsub double %19, %15
  %23 = fdiv double %14, %22
  %24 = tail call double @atan(double noundef %23) #41, !tbaa !15
  %25 = fmul double %24, 5.000000e-01
  %26 = fmul double %25, 2.000000e+00
  %27 = tail call double @cos(double noundef %26) #41, !tbaa !15
  %28 = fadd double %27, 1.000000e+00
  %29 = tail call double @sin(double noundef %26) #41, !tbaa !15
  %30 = tail call double @llvm.fmuladd.f64(double %14, double %29, double %28)
  %31 = tail call double @cos(double noundef %26) #41, !tbaa !15
  %32 = fsub double 1.000000e+00, %31
  %33 = tail call double @llvm.fmuladd.f64(double %15, double %32, double %30)
  %34 = fmul double %19, %33
  %35 = fmul double %34, 5.000000e-01
  %36 = tail call double @cos(double noundef %26) #41, !tbaa !15
  %37 = fsub double 1.000000e+00, %36
  %38 = tail call double @sin(double noundef %26) #41, !tbaa !15
  %39 = fneg double %14
  %40 = tail call double @llvm.fmuladd.f64(double %39, double %38, double %37)
  %41 = tail call double @cos(double noundef %26) #41, !tbaa !15
  %42 = fadd double %41, 1.000000e+00
  %43 = tail call double @llvm.fmuladd.f64(double %15, double %42, double %40)
  %44 = fmul double %19, %43
  %45 = fmul double %44, 5.000000e-01
  %46 = tail call double @cos(double noundef %25) #41, !tbaa !15
  %47 = tail call double @sin(double noundef %25) #41, !tbaa !15
  %48 = fmul double %17, %47
  %49 = tail call double @llvm.fmuladd.f64(double %16, double %46, double %48)
  %50 = fneg double %16
  %51 = tail call double @sin(double noundef %25) #41, !tbaa !15
  %52 = tail call double @cos(double noundef %25) #41, !tbaa !15
  %53 = fmul double %17, %52
  %54 = tail call double @llvm.fmuladd.f64(double %50, double %51, double %53)
  br label %55

55:                                               ; preds = %1, %21
  %.094 = phi double [ %54, %21 ], [ %17, %1 ]
  %.092 = phi double [ %25, %21 ], [ 0.000000e+00, %1 ]
  %.091 = phi double [ %49, %21 ], [ %16, %1 ]
  %.090 = phi double [ %45, %21 ], [ %15, %1 ]
  %.089 = phi double [ %35, %21 ], [ %19, %1 ]
  %56 = fdiv double %.091, %.089
  %57 = fdiv double %.094, %.090
  %58 = fmul double %56, -5.000000e-01
  %59 = fmul double %57, -5.000000e-01
  %square = fmul double %58, %58
  %square96 = fmul double %59, %59
  %60 = fmul double %.090, %square96
  %61 = tail call double @llvm.fmuladd.f64(double %.089, double %square, double %60)
  %62 = fsub double %61, %18
  %63 = fdiv double %62, %.089
  %64 = tail call double @sqrt(double noundef %63) #41, !tbaa !15
  %65 = fdiv double %62, %.090
  %66 = tail call double @sqrt(double noundef %65) #41, !tbaa !15
  %67 = tail call double @llvm.fabs.f64(double %.092)
  %68 = fcmp oeq double %67, 0x7FF0000000000000
  %or.cond = and i1 %20, %68
  br i1 %or.cond, label %cdce.call103, label %cdce.end104, !prof !468

cdce.call103:                                     ; preds = %55
  %69 = tail call double @cos(double noundef %.092) #41, !tbaa !15
  %70 = tail call double @sin(double noundef %.092) #41, !tbaa !15
  %71 = tail call double @sin(double noundef %.092) #41, !tbaa !15
  %72 = tail call double @cos(double noundef %.092) #41, !tbaa !15
  br label %cdce.end104

cdce.end104:                                      ; preds = %cdce.call103, %55
  %73 = fsub double %64, %66
  %square97 = fmul double %73, %73
  %74 = fadd double %64, %66
  %square98 = fmul double %74, %74
  %75 = fdiv double %square97, %square98
  %76 = fmul double %74, 0x400921FB54442D18
  %77 = fmul double %75, 3.000000e+00
  %78 = tail call double @llvm.fmuladd.f64(double %75, double -3.000000e+00, double 4.000000e+00)
  %79 = tail call double @sqrt(double noundef %78) #41, !tbaa !15
  %80 = fadd double %79, 1.000000e+01
  %81 = fdiv double %77, %80
  %82 = fadd double %81, 1.000000e+00
  %83 = fmul double %76, %82
  ret double %83
}